
uart.elf:     file format elf32-littlearm


Disassembly of section .text:

00008000 <_start>:
    8000:	e3a0d902 	mov	sp, #32768	; 0x8000
    8004:	eb00004e 	bl	8144 <main>

00008008 <hang>:
    8008:	eafffffe 	b	8008 <hang>

0000800c <PUT32>:
    800c:	e5801000 	str	r1, [r0]
    8010:	e12fff1e 	bx	lr

00008014 <GET32>:
    8014:	e5900000 	ldr	r0, [r0]
    8018:	e12fff1e 	bx	lr

0000801c <dummy>:
    801c:	e12fff1e 	bx	lr

00008020 <uart_putc>:
    8020:	e92d4010 	push	{r4, lr}
    8024:	e1a04000 	mov	r4, r0
    8028:	e59f001c 	ldr	r0, [pc, #28]	; 804c <uart_putc+0x2c>
    802c:	ebfffff8 	bl	8014 <GET32>
    8030:	e3100020 	tst	r0, #32
    8034:	0afffffb 	beq	8028 <uart_putc+0x8>
    8038:	e1a01004 	mov	r1, r4
    803c:	e59f000c 	ldr	r0, [pc, #12]	; 8050 <uart_putc+0x30>
    8040:	ebfffff1 	bl	800c <PUT32>
    8044:	e8bd4010 	pop	{r4, lr}
    8048:	e12fff1e 	bx	lr
    804c:	20215054 	eorcs	r5, r1, r4, asr r0
    8050:	20215040 	eorcs	r5, r1, r0, asr #32

00008054 <uart_getc>:
    8054:	e92d4010 	push	{r4, lr}
    8058:	e3a04831 	mov	r4, #3211264	; 0x310000
    805c:	ea000001 	b	8068 <uart_getc+0x14>
    8060:	e2544001 	subs	r4, r4, #1
    8064:	0a000003 	beq	8078 <uart_getc+0x24>
    8068:	e59f0018 	ldr	r0, [pc, #24]	; 8088 <uart_getc+0x34>
    806c:	ebffffe8 	bl	8014 <GET32>
    8070:	e3100001 	tst	r0, #1
    8074:	0afffff9 	beq	8060 <uart_getc+0xc>
    8078:	e59f000c 	ldr	r0, [pc, #12]	; 808c <uart_getc+0x38>
    807c:	ebffffe4 	bl	8014 <GET32>
    8080:	e8bd4010 	pop	{r4, lr}
    8084:	e12fff1e 	bx	lr
    8088:	20215054 	eorcs	r5, r1, r4, asr r0
    808c:	20215040 	eorcs	r5, r1, r0, asr #32

00008090 <print_string>:
    8090:	e92d4010 	push	{r4, lr}
    8094:	e1a04000 	mov	r4, r0
    8098:	e5d00000 	ldrb	r0, [r0]
    809c:	e3500000 	cmp	r0, #0
    80a0:	0a000003 	beq	80b4 <print_string+0x24>
    80a4:	ebffffdd 	bl	8020 <uart_putc>
    80a8:	e5f40001 	ldrb	r0, [r4, #1]!
    80ac:	e3500000 	cmp	r0, #0
    80b0:	1afffffb 	bne	80a4 <print_string+0x14>
    80b4:	e8bd4010 	pop	{r4, lr}
    80b8:	e12fff1e 	bx	lr

000080bc <read_string>:
    80bc:	e92d4070 	push	{r4, r5, r6, lr}
    80c0:	e1a06000 	mov	r6, r0
    80c4:	e1a05001 	mov	r5, r1
    80c8:	ebffffe1 	bl	8054 <uart_getc>
    80cc:	e20000ff 	and	r0, r0, #255	; 0xff
    80d0:	e350000d 	cmp	r0, #13
    80d4:	0a000012 	beq	8124 <read_string+0x68>
    80d8:	e3a04000 	mov	r4, #0
    80dc:	ea000005 	b	80f8 <read_string+0x3c>
    80e0:	e1550004 	cmp	r5, r4
    80e4:	ca000012 	bgt	8134 <read_string+0x78>
    80e8:	ebffffd9 	bl	8054 <uart_getc>
    80ec:	e20000ff 	and	r0, r0, #255	; 0xff
    80f0:	e350000d 	cmp	r0, #13
    80f4:	0a00000a 	beq	8124 <read_string+0x68>
    80f8:	e3500008 	cmp	r0, #8
    80fc:	1afffff7 	bne	80e0 <read_string+0x24>
    8100:	e3540000 	cmp	r4, #0
    8104:	0afffff7 	beq	80e8 <read_string+0x2c>
    8108:	ebffffc4 	bl	8020 <uart_putc>
    810c:	ebffffd0 	bl	8054 <uart_getc>
    8110:	e20000ff 	and	r0, r0, #255	; 0xff
    8114:	e350000d 	cmp	r0, #13
    8118:	e2466001 	sub	r6, r6, #1
    811c:	e2444001 	sub	r4, r4, #1
    8120:	1afffff4 	bne	80f8 <read_string+0x3c>
    8124:	e3a03000 	mov	r3, #0
    8128:	e5c63000 	strb	r3, [r6]
    812c:	e8bd4070 	pop	{r4, r5, r6, lr}
    8130:	e12fff1e 	bx	lr
    8134:	e4c60001 	strb	r0, [r6], #1
    8138:	e2844001 	add	r4, r4, #1
    813c:	ebffffb7 	bl	8020 <uart_putc>
    8140:	eaffffe8 	b	80e8 <read_string+0x2c>

00008144 <main>:
    8144:	e92d47f0 	push	{r4, r5, r6, r7, r8, r9, sl, lr}
    8148:	e59f03fc 	ldr	r0, [pc, #1020]	; 854c <main+0x408>
    814c:	e24dd090 	sub	sp, sp, #144	; 0x90
    8150:	e3a01001 	mov	r1, #1
    8154:	ebffffac 	bl	800c <PUT32>
    8158:	e59f03f0 	ldr	r0, [pc, #1008]	; 8550 <main+0x40c>
    815c:	e3a01000 	mov	r1, #0
    8160:	ebffffa9 	bl	800c <PUT32>
    8164:	e59f03e8 	ldr	r0, [pc, #1000]	; 8554 <main+0x410>
    8168:	e3a01000 	mov	r1, #0
    816c:	ebffffa6 	bl	800c <PUT32>
    8170:	e59f03e0 	ldr	r0, [pc, #992]	; 8558 <main+0x414>
    8174:	e3a01003 	mov	r1, #3
    8178:	ebffffa3 	bl	800c <PUT32>
    817c:	e59f03d8 	ldr	r0, [pc, #984]	; 855c <main+0x418>
    8180:	e3a01000 	mov	r1, #0
    8184:	ebffffa0 	bl	800c <PUT32>
    8188:	e59f03c0 	ldr	r0, [pc, #960]	; 8550 <main+0x40c>
    818c:	e3a01000 	mov	r1, #0
    8190:	ebffff9d 	bl	800c <PUT32>
    8194:	e59f03c4 	ldr	r0, [pc, #964]	; 8560 <main+0x41c>
    8198:	e3a010c6 	mov	r1, #198	; 0xc6
    819c:	ebffff9a 	bl	800c <PUT32>
    81a0:	e59f13bc 	ldr	r1, [pc, #956]	; 8564 <main+0x420>
    81a4:	e59f03bc 	ldr	r0, [pc, #956]	; 8568 <main+0x424>
    81a8:	ebffff97 	bl	800c <PUT32>
    81ac:	e59f03b8 	ldr	r0, [pc, #952]	; 856c <main+0x428>
    81b0:	ebffff97 	bl	8014 <GET32>
    81b4:	e3c01a3f 	bic	r1, r0, #258048	; 0x3f000
    81b8:	e3811a12 	orr	r1, r1, #73728	; 0x12000
    81bc:	e59f03a8 	ldr	r0, [pc, #936]	; 856c <main+0x428>
    81c0:	ebffff91 	bl	800c <PUT32>
    81c4:	e59f03a4 	ldr	r0, [pc, #932]	; 8570 <main+0x42c>
    81c8:	e3a01000 	mov	r1, #0
    81cc:	ebffff8e 	bl	800c <PUT32>
    81d0:	e3a04000 	mov	r4, #0
    81d4:	e1a00004 	mov	r0, r4
    81d8:	e2844001 	add	r4, r4, #1
    81dc:	ebffff8e 	bl	801c <dummy>
    81e0:	e3540096 	cmp	r4, #150	; 0x96
    81e4:	1afffffa 	bne	81d4 <main+0x90>
    81e8:	e59f0384 	ldr	r0, [pc, #900]	; 8574 <main+0x430>
    81ec:	e3a01903 	mov	r1, #49152	; 0xc000
    81f0:	ebffff85 	bl	800c <PUT32>
    81f4:	e3a04000 	mov	r4, #0
    81f8:	e1a00004 	mov	r0, r4
    81fc:	e2844001 	add	r4, r4, #1
    8200:	ebffff85 	bl	801c <dummy>
    8204:	e3540096 	cmp	r4, #150	; 0x96
    8208:	1afffffa 	bne	81f8 <main+0xb4>
    820c:	e3a06000 	mov	r6, #0
    8210:	e3a07064 	mov	r7, #100	; 0x64
    8214:	e3a0a077 	mov	sl, #119	; 0x77
    8218:	e3a09073 	mov	r9, #115	; 0x73
    821c:	e3a08061 	mov	r8, #97	; 0x61
    8220:	e59f034c 	ldr	r0, [pc, #844]	; 8574 <main+0x430>
    8224:	e3a01000 	mov	r1, #0
    8228:	e59f4348 	ldr	r4, [pc, #840]	; 8578 <main+0x434>
    822c:	ebffff76 	bl	800c <PUT32>
    8230:	e59f031c 	ldr	r0, [pc, #796]	; 8554 <main+0x410>
    8234:	e3a01003 	mov	r1, #3
    8238:	ebffff73 	bl	800c <PUT32>
    823c:	e8b4000f 	ldm	r4!, {r0, r1, r2, r3}
    8240:	e28d5034 	add	r5, sp, #52	; 0x34
    8244:	e8a5000f 	stmia	r5!, {r0, r1, r2, r3}
    8248:	e8940003 	ldm	r4, {r0, r1}
    824c:	e59f4328 	ldr	r4, [pc, #808]	; 857c <main+0x438>
    8250:	e4850004 	str	r0, [r5], #4
    8254:	e1c510b0 	strh	r1, [r5]
    8258:	e8b4000f 	ldm	r4!, {r0, r1, r2, r3}
    825c:	e28de04c 	add	lr, sp, #76	; 0x4c
    8260:	e8ae000f 	stmia	lr!, {r0, r1, r2, r3}
    8264:	e8940007 	ldm	r4, {r0, r1, r2}
    8268:	e59f4310 	ldr	r4, [pc, #784]	; 8580 <main+0x43c>
    826c:	e88e0007 	stm	lr, {r0, r1, r2}
    8270:	e59f330c 	ldr	r3, [pc, #780]	; 8584 <main+0x440>
    8274:	e58d6028 	str	r6, [sp, #40]	; 0x28
    8278:	e58d602c 	str	r6, [sp, #44]	; 0x2c
    827c:	e1cd63b0 	strh	r6, [sp, #48]	; 0x30
    8280:	e5cd6032 	strb	r6, [sp, #50]	; 0x32
    8284:	e5cda024 	strb	sl, [sp, #36]	; 0x24
    8288:	e5cda026 	strb	sl, [sp, #38]	; 0x26
    828c:	e5cd7025 	strb	r7, [sp, #37]	; 0x25
    8290:	e5cd9027 	strb	r9, [sp, #39]	; 0x27
    8294:	e8940003 	ldm	r4, {r0, r1}
    8298:	e59f22e8 	ldr	r2, [pc, #744]	; 8588 <main+0x444>
    829c:	e58d0014 	str	r0, [sp, #20]
    82a0:	e1cd11b8 	strh	r1, [sp, #24]
    82a4:	e1a05821 	lsr	r5, r1, #16
    82a8:	e8930003 	ldm	r3, {r0, r1}
    82ac:	e59f32d8 	ldr	r3, [pc, #728]	; 858c <main+0x448>
    82b0:	e58d0004 	str	r0, [sp, #4]
    82b4:	e1cd10b8 	strh	r1, [sp, #8]
    82b8:	e8920003 	ldm	r2, {r0, r1}
    82bc:	e59fe2cc 	ldr	lr, [pc, #716]	; 8590 <main+0x44c>
    82c0:	e58d000c 	str	r0, [sp, #12]
    82c4:	e1cd11b0 	strh	r1, [sp, #16]
    82c8:	e8930003 	ldm	r3, {r0, r1}
    82cc:	e1a04821 	lsr	r4, r1, #16
    82d0:	e58d001c 	str	r0, [sp, #28]
    82d4:	e1cd12b0 	strh	r1, [sp, #32]
    82d8:	e8be000f 	ldm	lr!, {r0, r1, r2, r3}
    82dc:	e28dc068 	add	ip, sp, #104	; 0x68
    82e0:	e8ac000f 	stmia	ip!, {r0, r1, r2, r3}
    82e4:	e59f32a8 	ldr	r3, [pc, #680]	; 8594 <main+0x450>
    82e8:	e5cd4022 	strb	r4, [sp, #34]	; 0x22
    82ec:	e5cd7029 	strb	r7, [sp, #41]	; 0x29
    82f0:	e5cd702a 	strb	r7, [sp, #42]	; 0x2a
    82f4:	e5cd501a 	strb	r5, [sp, #26]
    82f8:	e5cd8028 	strb	r8, [sp, #40]	; 0x28
    82fc:	e58d3000 	str	r3, [sp]
    8300:	e8be000f 	ldm	lr!, {r0, r1, r2, r3}
    8304:	e8ac000f 	stmia	ip!, {r0, r1, r2, r3}
    8308:	e5dd3034 	ldrb	r3, [sp, #52]	; 0x34
    830c:	e89e0003 	ldm	lr, {r0, r1}
    8310:	e1530006 	cmp	r3, r6
    8314:	e88c0003 	stm	ip, {r0, r1}
    8318:	128d4034 	addne	r4, sp, #52	; 0x34
    831c:	0a000004 	beq	8334 <main+0x1f0>
    8320:	e1a00003 	mov	r0, r3
    8324:	ebffff3d 	bl	8020 <uart_putc>
    8328:	e5f43001 	ldrb	r3, [r4, #1]!
    832c:	e3530000 	cmp	r3, #0
    8330:	1afffffa 	bne	8320 <main+0x1dc>
    8334:	e5dd004c 	ldrb	r0, [sp, #76]	; 0x4c
    8338:	e3500000 	cmp	r0, #0
    833c:	128d404c 	addne	r4, sp, #76	; 0x4c
    8340:	0a000003 	beq	8354 <main+0x210>
    8344:	ebffff35 	bl	8020 <uart_putc>
    8348:	e5f40001 	ldrb	r0, [r4, #1]!
    834c:	e3500000 	cmp	r0, #0
    8350:	1afffffb 	bne	8344 <main+0x200>
    8354:	e28d8090 	add	r8, sp, #144	; 0x90
    8358:	e578707c 	ldrb	r7, [r8, #-124]!	; 0x7c
    835c:	ebffff3c 	bl	8054 <uart_getc>
    8360:	e3500000 	cmp	r0, #0
    8364:	0afffffc 	beq	835c <main+0x218>
    8368:	e3a06000 	mov	r6, #0
    836c:	e3570000 	cmp	r7, #0
    8370:	11a00007 	movne	r0, r7
    8374:	11a04008 	movne	r4, r8
    8378:	0a000003 	beq	838c <main+0x248>
    837c:	ebffff27 	bl	8020 <uart_putc>
    8380:	e5f40001 	ldrb	r0, [r4, #1]!
    8384:	e3500000 	cmp	r0, #0
    8388:	1afffffb 	bne	837c <main+0x238>
    838c:	e2860030 	add	r0, r6, #48	; 0x30
    8390:	ebffff22 	bl	8020 <uart_putc>
    8394:	e28d9024 	add	r9, sp, #36	; 0x24
    8398:	e3a0002e 	mov	r0, #46	; 0x2e
    839c:	ebffff1f 	bl	8020 <uart_putc>
    83a0:	e1a05009 	mov	r5, r9
    83a4:	e3a03077 	mov	r3, #119	; 0x77
    83a8:	e3a04000 	mov	r4, #0
    83ac:	e2433061 	sub	r3, r3, #97	; 0x61
    83b0:	e3530016 	cmp	r3, #22
    83b4:	979ff103 	ldrls	pc, [pc, r3, lsl #2]
    83b8:	ea00001e 	b	8438 <main+0x2f4>
    83bc:	00008518 	andeq	r8, r0, r8, lsl r5
    83c0:	00008438 	andeq	r8, r0, r8, lsr r4
    83c4:	00008438 	andeq	r8, r0, r8, lsr r4
    83c8:	000084f4 	strdeq	r8, [r0], -r4
    83cc:	00008438 	andeq	r8, r0, r8, lsr r4
    83d0:	00008438 	andeq	r8, r0, r8, lsr r4
    83d4:	00008438 	andeq	r8, r0, r8, lsr r4
    83d8:	00008438 	andeq	r8, r0, r8, lsr r4
    83dc:	00008438 	andeq	r8, r0, r8, lsr r4
    83e0:	00008438 	andeq	r8, r0, r8, lsr r4
    83e4:	00008438 	andeq	r8, r0, r8, lsr r4
    83e8:	00008438 	andeq	r8, r0, r8, lsr r4
    83ec:	00008438 	andeq	r8, r0, r8, lsr r4
    83f0:	00008438 	andeq	r8, r0, r8, lsr r4
    83f4:	00008438 	andeq	r8, r0, r8, lsr r4
    83f8:	00008438 	andeq	r8, r0, r8, lsr r4
    83fc:	00008438 	andeq	r8, r0, r8, lsr r4
    8400:	00008438 	andeq	r8, r0, r8, lsr r4
    8404:	0000844c 	andeq	r8, r0, ip, asr #8
    8408:	00008438 	andeq	r8, r0, r8, lsr r4
    840c:	00008438 	andeq	r8, r0, r8, lsr r4
    8410:	00008438 	andeq	r8, r0, r8, lsr r4
    8414:	00008418 	andeq	r8, r0, r8, lsl r4
    8418:	e5dd0000 	ldrb	r0, [sp]
    841c:	e3500000 	cmp	r0, #0
    8420:	11a0a00d 	movne	sl, sp
    8424:	0a000003 	beq	8438 <main+0x2f4>
    8428:	ebfffefc 	bl	8020 <uart_putc>
    842c:	e5fa0001 	ldrb	r0, [sl, #1]!
    8430:	e3500000 	cmp	r0, #0
    8434:	1afffffb 	bne	8428 <main+0x2e4>
    8438:	e2844001 	add	r4, r4, #1
    843c:	e1540006 	cmp	r4, r6
    8440:	ca00000c 	bgt	8478 <main+0x334>
    8444:	e5f53001 	ldrb	r3, [r5, #1]!
    8448:	eaffffd7 	b	83ac <main+0x268>
    844c:	e5dd0004 	ldrb	r0, [sp, #4]
    8450:	e3500000 	cmp	r0, #0
    8454:	128da004 	addne	sl, sp, #4
    8458:	0afffff6 	beq	8438 <main+0x2f4>
    845c:	ebfffeef 	bl	8020 <uart_putc>
    8460:	e5fa0001 	ldrb	r0, [sl, #1]!
    8464:	e3500000 	cmp	r0, #0
    8468:	1afffffb 	bne	845c <main+0x318>
    846c:	e2844001 	add	r4, r4, #1
    8470:	e1540006 	cmp	r4, r6
    8474:	dafffff2 	ble	8444 <main+0x300>
    8478:	e3a0000d 	mov	r0, #13
    847c:	ebfffee7 	bl	8020 <uart_putc>
    8480:	e3a0000a 	mov	r0, #10
    8484:	ebfffee5 	bl	8020 <uart_putc>
    8488:	e3a0a077 	mov	sl, #119	; 0x77
    848c:	e3a05000 	mov	r5, #0
    8490:	ea000000 	b	8498 <main+0x354>
    8494:	e5f9a001 	ldrb	sl, [r9, #1]!
    8498:	ebfffeed 	bl	8054 <uart_getc>
    849c:	e20040ff 	and	r4, r0, #255	; 0xff
    84a0:	e1a00004 	mov	r0, r4
    84a4:	ebfffedd 	bl	8020 <uart_putc>
    84a8:	e2855001 	add	r5, r5, #1
    84ac:	e054400a 	subs	r4, r4, sl
    84b0:	13a04001 	movne	r4, #1
    84b4:	e1550006 	cmp	r5, r6
    84b8:	c3a03000 	movgt	r3, #0
    84bc:	d3a03001 	movle	r3, #1
    84c0:	e1530004 	cmp	r3, r4
    84c4:	8afffff2 	bhi	8494 <main+0x350>
    84c8:	e3540000 	cmp	r4, #0
    84cc:	0a00001a 	beq	853c <main+0x3f8>
    84d0:	e5dd0068 	ldrb	r0, [sp, #104]	; 0x68
    84d4:	e3500000 	cmp	r0, #0
    84d8:	128d4068 	addne	r4, sp, #104	; 0x68
    84dc:	0affff9e 	beq	835c <main+0x218>
    84e0:	ebfffece 	bl	8020 <uart_putc>
    84e4:	e5f40001 	ldrb	r0, [r4, #1]!
    84e8:	e3500000 	cmp	r0, #0
    84ec:	1afffffb 	bne	84e0 <main+0x39c>
    84f0:	eaffff99 	b	835c <main+0x218>
    84f4:	e5dd001c 	ldrb	r0, [sp, #28]
    84f8:	e3500000 	cmp	r0, #0
    84fc:	128da01c 	addne	sl, sp, #28
    8500:	0affffcc 	beq	8438 <main+0x2f4>
    8504:	ebfffec5 	bl	8020 <uart_putc>
    8508:	e5fa0001 	ldrb	r0, [sl, #1]!
    850c:	e3500000 	cmp	r0, #0
    8510:	1afffffb 	bne	8504 <main+0x3c0>
    8514:	eaffffc7 	b	8438 <main+0x2f4>
    8518:	e5dd000c 	ldrb	r0, [sp, #12]
    851c:	e3500000 	cmp	r0, #0
    8520:	128da00c 	addne	sl, sp, #12
    8524:	0affffc3 	beq	8438 <main+0x2f4>
    8528:	ebfffebc 	bl	8020 <uart_putc>
    852c:	e5fa0001 	ldrb	r0, [sl, #1]!
    8530:	e3500000 	cmp	r0, #0
    8534:	1afffffb 	bne	8528 <main+0x3e4>
    8538:	eaffffbe 	b	8438 <main+0x2f4>
    853c:	e2866001 	add	r6, r6, #1
    8540:	e3560007 	cmp	r6, #7
    8544:	1affff88 	bne	836c <main+0x228>
    8548:	eaffffe0 	b	84d0 <main+0x38c>
    854c:	20215004 	eorcs	r5, r1, r4
    8550:	20215044 	eorcs	r5, r1, r4, asr #32
    8554:	20215060 	eorcs	r5, r1, r0, rrx
    8558:	2021504c 	eorcs	r5, r1, ip, asr #32
    855c:	20215050 	eorcs	r5, r1, r0, asr r0
    8560:	20215048 	eorcs	r5, r1, r8, asr #32
    8564:	0000010e 	andeq	r0, r0, lr, lsl #2
    8568:	20215068 	eorcs	r5, r1, r8, rrx
    856c:	20200004 	eorcs	r0, r0, r4
    8570:	20200094 	mlacs	r0, r4, r0, r0
    8574:	20200098 	mlacs	r0, r8, r0, r0
    8578:	00008598 	muleq	r0, r8, r5
    857c:	000085b0 			; <UNDEFINED> instruction: 0x000085b0
    8580:	000085cc 	andeq	r8, r0, ip, asr #11
    8584:	000085d4 	ldrdeq	r8, [r0], -r4
    8588:	000085dc 	ldrdeq	r8, [r0], -ip
    858c:	000085e4 	andeq	r8, r0, r4, ror #11
    8590:	000085ec 	andeq	r8, r0, ip, ror #11
    8594:	00205055 	eoreq	r5, r0, r5, asr r0

Disassembly of section .rodata.str1.4:

00008598 <.rodata.str1.4>:
    8598:	636c6557 	cmnvs	ip, #364904448	; 0x15c00000
    859c:	20656d6f 	rsbcs	r6, r5, pc, ror #26
    85a0:	53206f74 	teqpl	r0, #116, 30	; 0x1d0
    85a4:	6e6f6d69 	cdpvs	13, 6, cr6, cr15, cr9, {3}
    85a8:	6369645f 	cmnvs	r9, #1593835520	; 0x5f000000
    85ac:	00000065 	andeq	r0, r0, r5, rrx
    85b0:	6572505b 	ldrbvs	r5, [r2, #-91]!	; 0x5b
    85b4:	61207373 	teqvs	r0, r3, ror r3
    85b8:	6220796e 	eorvs	r7, r0, #1802240	; 0x1b8000
    85bc:	6f747475 	svcvs	0x00747475
    85c0:	6f74206e 	svcvs	0x0074206e
    85c4:	61747320 	cmnvs	r4, r0, lsr #6
    85c8:	00207472 	eoreq	r7, r0, r2, ror r4
    85cc:	6576654c 	ldrbvs	r6, [r6, #-1356]!	; 0x54c
    85d0:	0000206c 	andeq	r2, r0, ip, rrx
    85d4:	4e574f44 	cdpmi	15, 5, cr4, cr7, cr4, {2}
    85d8:	00000020 	andeq	r0, r0, r0, lsr #32
    85dc:	7466656c 	strbtvc	r6, [r6], #-1388	; 0x56c
    85e0:	00000020 	andeq	r0, r0, r0, lsr #32
    85e4:	68676972 	stmdavs	r7!, {r1, r4, r5, r6, r8, fp, sp, lr}^
    85e8:	00002074 	andeq	r2, r0, r4, ror r0
    85ec:	73657250 	cmnvc	r5, #80, 4
    85f0:	616e6f69 	cmnvs	lr, r9, ror #30
    85f4:	616e7520 	cmnvs	lr, r0, lsr #10
    85f8:	63657420 	cmnvs	r5, #32, 8	; 0x20000000
    85fc:	7020616c 	eorvc	r6, r0, ip, ror #2
    8600:	20617261 	rsbcs	r7, r1, r1, ror #4
    8604:	766c6f76 	uqsub16vc	r6, ip, r6
    8608:	61207265 	teqvs	r0, r5, ror #4
    860c:	67756a20 	ldrbvs	r6, [r5, -r0, lsr #20]!
    8610:	00207261 	eoreq	r7, r0, r1, ror #4

Disassembly of section .ARM.attributes:

00000000 <.ARM.attributes>:
   0:	00002a41 	andeq	r2, r0, r1, asr #20
   4:	61656100 	cmnvs	r5, r0, lsl #2
   8:	01006962 	tsteq	r0, r2, ror #18
   c:	00000020 	andeq	r0, r0, r0, lsr #32
  10:	4d524105 	ldfmie	f4, [r2, #-20]	; 0xffffffec
  14:	54347620 	ldrtpl	r7, [r4], #-1568	; 0x620
  18:	08020600 	stmdaeq	r2, {r9, sl}
  1c:	12010901 	andne	r0, r1, #16384	; 0x4000
  20:	15011404 	strne	r1, [r1, #-1028]	; 0x404
  24:	18031701 	stmdane	r3, {r0, r8, r9, sl, ip}
  28:	Address 0x0000000000000028 is out of bounds.


Disassembly of section .comment:

00000000 <.comment>:
   0:	3a434347 	bcc	10d0d24 <main+0x10c8be0>
   4:	4e472820 	cdpmi	8, 4, cr2, cr7, cr0, {1}
   8:	6f542055 	svcvs	0x00542055
   c:	20736c6f 	rsbscs	r6, r3, pc, ror #24
  10:	20726f66 	rsbscs	r6, r2, r6, ror #30
  14:	204d5241 	subcs	r5, sp, r1, asr #4
  18:	65626d45 	strbvs	r6, [r2, #-3397]!	; 0xd45
  1c:	64656464 	strbtvs	r6, [r5], #-1124	; 0x464
  20:	6f725020 	svcvs	0x00725020
  24:	73736563 	cmnvc	r3, #415236096	; 0x18c00000
  28:	2973726f 	ldmdbcs	r3!, {r0, r1, r2, r3, r5, r6, r9, ip, sp, lr}^
  2c:	392e3420 	stmdbcc	lr!, {r5, sl, ip, sp}
  30:	3220332e 	eorcc	r3, r0, #-1207959552	; 0xb8000000
  34:	30353130 	eorscc	r3, r5, r0, lsr r1
  38:	20393235 	eorscs	r3, r9, r5, lsr r2
  3c:	6c657228 	sfmvs	f7, 2, [r5], #-160	; 0xffffff60
  40:	65736165 	ldrbvs	r6, [r3, #-357]!	; 0x165
  44:	415b2029 	cmpmi	fp, r9, lsr #32
  48:	652f4d52 	strvs	r4, [pc, #-3410]!	; fffff2fe <main+0xffff71ba>
  4c:	6465626d 	strbtvs	r6, [r5], #-621	; 0x26d
  50:	2d646564 	cfstr64cs	mvdx6, [r4, #-400]!	; 0xfffffe70
  54:	2d395f34 	ldccs	15, cr5, [r9, #-208]!	; 0xffffff30
  58:	6e617262 	cdpvs	2, 6, cr7, cr1, cr2, {3}
  5c:	72206863 	eorvc	r6, r0, #6488064	; 0x630000
  60:	73697665 	cmnvc	r9, #105906176	; 0x6500000
  64:	206e6f69 	rsbcs	r6, lr, r9, ror #30
  68:	32343232 	eorscc	r3, r4, #536870915	; 0x20000003
  6c:	005d3838 	subseq	r3, sp, r8, lsr r8
